; Function Attrs: nounwind sspstrong uwtable
define internal i32 @tmx_m_of(ptr noundef captures(none) %0) #0 {
  %2 = load i32, ptr %0, align 8, !tbaa !47
  %3 = and i32 %2, 128
  %.not.i = icmp eq i32 %3, 0
  br i1 %.not.i, label %m_of.exit, label %4

4:                                                ; preds = %1
  tail call fastcc void @get_c_jd(ptr noundef nonnull %0)
  %5 = getelementptr inbounds nuw i8, ptr %0, i64 32
  %6 = load i32, ptr %5, align 8, !tbaa !47
  br label %m_of.exit

m_of.exit:                                        ; preds = %1, %4
  %.0.i = phi i32 [ %6, %4 ], [ 0, %1 ]
  ret i32 %.0.i
}